(dp1
S'headers'
p2
(lp3
S'frame_id'
p4
aS'shotid'
p5
aS'fn'
p6
aS'out_id'
p7
aS't'
aS'ffmpeg_scene'
p8
asS'shots'
p9
(lp10
(lp11
(lp12
I21
aI0
aS'/mnt/datadrive/CILVR/frames/Lions/jF5eDmDPUDk/frame_00001.jpeg'
p13
aI1
aF0.69999999999999996
aF0.66000000000000003
aa(lp14
I36
aI0
aS'/mnt/datadrive/CILVR/frames/Lions/jF5eDmDPUDk/frame_00002.jpeg'
p15
aI2
aF1.2
aF0
aaa(lp16
(lp17
I41
aI1
aS'/mnt/datadrive/CILVR/frames/Lions/jF5eDmDPUDk/frame_00003.jpeg'
p18
aI3
aF1.3666670000000001
aF0.80000000000000004
aa(lp19
I56
aI1
aS'/mnt/datadrive/CILVR/frames/Lions/jF5eDmDPUDk/frame_00004.jpeg'
p20
aI4
aF1.8666670000000001
aF0.12
aaa(lp21
(lp22
I57
aI2
aS'/mnt/datadrive/CILVR/frames/Lions/jF5eDmDPUDk/frame_00005.jpeg'
p23
aI5
aF1.8999999999999999
aF0.44
aaa(lp24
(lp25
I71
aI3
aS'/mnt/datadrive/CILVR/frames/Lions/jF5eDmDPUDk/frame_00006.jpeg'
p26
aI6
aF2.3666670000000001
aF0.69999999999999996
aa(lp27
I86
aI3
aS'/mnt/datadrive/CILVR/frames/Lions/jF5eDmDPUDk/frame_00007.jpeg'
p28
aI7
aF2.8666670000000001
aF0
aa(lp29
I101
aI3
aS'/mnt/datadrive/CILVR/frames/Lions/jF5eDmDPUDk/frame_00008.jpeg'
p30
aI8
aF3.3666670000000001
aF0
aa(lp31
I116
aI3
aS'/mnt/datadrive/CILVR/frames/Lions/jF5eDmDPUDk/frame_00009.jpeg'
p32
aI9
aF3.8666670000000001
aF0
aa(lp33
I132
aI3
aS'/mnt/datadrive/CILVR/frames/Lions/jF5eDmDPUDk/frame_00010.jpeg'
p34
aI10
aF4.4000000000000004
aF0
aa(lp35
I147
aI3
aS'/mnt/datadrive/CILVR/frames/Lions/jF5eDmDPUDk/frame_00011.jpeg'
p36
aI11
aF4.9000000000000004
aF0
aaa(lp37
(lp38
I150
aI4
aS'/mnt/datadrive/CILVR/frames/Lions/jF5eDmDPUDk/frame_00012.jpeg'
p39
aI12
aF5
aF0.71999999999999997
aa(lp40
I165
aI4
aS'/mnt/datadrive/CILVR/frames/Lions/jF5eDmDPUDk/frame_00013.jpeg'
p41
aI13
aF5.5
aF0
aa(lp42
I180
aI4
aS'/mnt/datadrive/CILVR/frames/Lions/jF5eDmDPUDk/frame_00014.jpeg'
p43
aI14
aF6
aF0.01
aa(lp44
I195
aI4
aS'/mnt/datadrive/CILVR/frames/Lions/jF5eDmDPUDk/frame_00015.jpeg'
p45
aI15
aF6.5
aF0
aa(lp46
I210
aI4
aS'/mnt/datadrive/CILVR/frames/Lions/jF5eDmDPUDk/frame_00016.jpeg'
p47
aI16
aF7
aF0.01
aa(lp48
I225
aI4
aS'/mnt/datadrive/CILVR/frames/Lions/jF5eDmDPUDk/frame_00017.jpeg'
p49
aI17
aF7.5
aF0
aa(lp50
I240
aI4
aS'/mnt/datadrive/CILVR/frames/Lions/jF5eDmDPUDk/frame_00018.jpeg'
p51
aI18
aF8
aF0.01
aa(lp52
I255
aI4
aS'/mnt/datadrive/CILVR/frames/Lions/jF5eDmDPUDk/frame_00019.jpeg'
p53
aI19
aF8.5
aF0
aaa(lp54
(lp55
I265
aI5
aS'/mnt/datadrive/CILVR/frames/Lions/jF5eDmDPUDk/frame_00020.jpeg'
p56
aI20
aF8.8333329999999997
aF0.34999999999999998
aa(lp57
I280
aI5
aS'/mnt/datadrive/CILVR/frames/Lions/jF5eDmDPUDk/frame_00021.jpeg'
p58
aI21
aF9.3333329999999997
aF0
aa(lp59
I295
aI5
aS'/mnt/datadrive/CILVR/frames/Lions/jF5eDmDPUDk/frame_00022.jpeg'
p60
aI22
aF9.8333329999999997
aF0.040000000000000001
aa(lp61
I310
aI5
aS'/mnt/datadrive/CILVR/frames/Lions/jF5eDmDPUDk/frame_00023.jpeg'
p62
aI23
aF10.333333
aF0.02
aa(lp63
I325
aI5
aS'/mnt/datadrive/CILVR/frames/Lions/jF5eDmDPUDk/frame_00024.jpeg'
p64
aI24
aF10.833333
aF0
aaa(lp65
(lp66
I340
aI6
aS'/mnt/datadrive/CILVR/frames/Lions/jF5eDmDPUDk/frame_00025.jpeg'
p67
aI25
aF11.333333
aF0.51000000000000001
aa(lp68
I355
aI6
aS'/mnt/datadrive/CILVR/frames/Lions/jF5eDmDPUDk/frame_00026.jpeg'
p69
aI26
aF11.833333
aF0
aa(lp70
I370
aI6
aS'/mnt/datadrive/CILVR/frames/Lions/jF5eDmDPUDk/frame_00027.jpeg'
p71
aI27
aF12.333333
aF0
aa(lp72
I385
aI6
aS'/mnt/datadrive/CILVR/frames/Lions/jF5eDmDPUDk/frame_00028.jpeg'
p73
aI28
aF12.833333
aF0.01
aa(lp74
I400
aI6
aS'/mnt/datadrive/CILVR/frames/Lions/jF5eDmDPUDk/frame_00029.jpeg'
p75
aI29
aF13.333333
aF0
aa(lp76
I415
aI6
aS'/mnt/datadrive/CILVR/frames/Lions/jF5eDmDPUDk/frame_00030.jpeg'
p77
aI30
aF13.833333
aF0.01
aa(lp78
I430
aI6
aS'/mnt/datadrive/CILVR/frames/Lions/jF5eDmDPUDk/frame_00031.jpeg'
p79
aI31
aF14.333333
aF0
aa(lp80
I445
aI6
aS'/mnt/datadrive/CILVR/frames/Lions/jF5eDmDPUDk/frame_00032.jpeg'
p81
aI32
aF14.833333
aF0.01
aaa(lp82
(lp83
I455
aI7
aS'/mnt/datadrive/CILVR/frames/Lions/jF5eDmDPUDk/frame_00033.jpeg'
p84
aI33
aF15.166667
aF0.63
aa(lp85
I470
aI7
aS'/mnt/datadrive/CILVR/frames/Lions/jF5eDmDPUDk/frame_00034.jpeg'
p86
aI34
aF15.666667
aF0.01
aa(lp87
I485
aI7
aS'/mnt/datadrive/CILVR/frames/Lions/jF5eDmDPUDk/frame_00035.jpeg'
p88
aI35
aF16.166667
aF0
aa(lp89
I500
aI7
aS'/mnt/datadrive/CILVR/frames/Lions/jF5eDmDPUDk/frame_00036.jpeg'
p90
aI36
aF16.666667
aF0
aa(lp91
I515
aI7
aS'/mnt/datadrive/CILVR/frames/Lions/jF5eDmDPUDk/frame_00037.jpeg'
p92
aI37
aF17.166667
aF0
aa(lp93
I530
aI7
aS'/mnt/datadrive/CILVR/frames/Lions/jF5eDmDPUDk/frame_00038.jpeg'
p94
aI38
aF17.666667
aF0.01
aa(lp95
I545
aI7
aS'/mnt/datadrive/CILVR/frames/Lions/jF5eDmDPUDk/frame_00039.jpeg'
p96
aI39
aF18.166667
aF0
aa(lp97
I560
aI7
aS'/mnt/datadrive/CILVR/frames/Lions/jF5eDmDPUDk/frame_00040.jpeg'
p98
aI40
aF18.666667
aF0.01
aa(lp99
I575
aI7
aS'/mnt/datadrive/CILVR/frames/Lions/jF5eDmDPUDk/frame_00041.jpeg'
p100
aI41
aF19.166667
aF0.01
aaa(lp101
(lp102
I581
aI8
aS'/mnt/datadrive/CILVR/frames/Lions/jF5eDmDPUDk/frame_00042.jpeg'
p103
aI42
aF19.366667
aF0.41999999999999998
aa(lp104
I596
aI8
aS'/mnt/datadrive/CILVR/frames/Lions/jF5eDmDPUDk/frame_00043.jpeg'
p105
aI43
aF19.866667
aF0.040000000000000001
aa(lp106
I611
aI8
aS'/mnt/datadrive/CILVR/frames/Lions/jF5eDmDPUDk/frame_00044.jpeg'
p107
aI44
aF20.366667
aF0.02
aa(lp108
I626
aI8
aS'/mnt/datadrive/CILVR/frames/Lions/jF5eDmDPUDk/frame_00045.jpeg'
p109
aI45
aF20.866667
aF0
aa(lp110
I641
aI8
aS'/mnt/datadrive/CILVR/frames/Lions/jF5eDmDPUDk/frame_00046.jpeg'
p111
aI46
aF21.366667
aF0.01
aa(lp112
I656
aI8
aS'/mnt/datadrive/CILVR/frames/Lions/jF5eDmDPUDk/frame_00047.jpeg'
p113
aI47
aF21.866667
aF0.01
aa(lp114
I671
aI8
aS'/mnt/datadrive/CILVR/frames/Lions/jF5eDmDPUDk/frame_00048.jpeg'
p115
aI48
aF22.366667
aF0.01
aa(lp116
I686
aI8
aS'/mnt/datadrive/CILVR/frames/Lions/jF5eDmDPUDk/frame_00049.jpeg'
p117
aI49
aF22.866667
aF0
aaa(lp118
(lp119
I690
aI9
aS'/mnt/datadrive/CILVR/frames/Lions/jF5eDmDPUDk/frame_00050.jpeg'
p120
aI50
aF23
aF0.35999999999999999
aa(lp121
I705
aI9
aS'/mnt/datadrive/CILVR/frames/Lions/jF5eDmDPUDk/frame_00051.jpeg'
p122
aI51
aF23.5
aF0
aa(lp123
I720
aI9
aS'/mnt/datadrive/CILVR/frames/Lions/jF5eDmDPUDk/frame_00052.jpeg'
p124
aI52
aF24
aF0.01
aa(lp125
I735
aI9
aS'/mnt/datadrive/CILVR/frames/Lions/jF5eDmDPUDk/frame_00053.jpeg'
p126
aI53
aF24.5
aF0
aa(lp127
I750
aI9
aS'/mnt/datadrive/CILVR/frames/Lions/jF5eDmDPUDk/frame_00054.jpeg'
p128
aI54
aF25
aF0.02
aa(lp129
I765
aI9
aS'/mnt/datadrive/CILVR/frames/Lions/jF5eDmDPUDk/frame_00055.jpeg'
p130
aI55
aF25.5
aF0
aa(lp131
I780
aI9
aS'/mnt/datadrive/CILVR/frames/Lions/jF5eDmDPUDk/frame_00056.jpeg'
p132
aI56
aF26
aF0.02
aa(lp133
I795
aI9
aS'/mnt/datadrive/CILVR/frames/Lions/jF5eDmDPUDk/frame_00057.jpeg'
p134
aI57
aF26.5
aF0
aa(lp135
I810
aI9
aS'/mnt/datadrive/CILVR/frames/Lions/jF5eDmDPUDk/frame_00058.jpeg'
p136
aI58
aF27
aF0.029999999999999999
aaa(lp137
(lp138
I816
aI10
aS'/mnt/datadrive/CILVR/frames/Lions/jF5eDmDPUDk/frame_00059.jpeg'
p139
aI59
aF27.199999999999999
aF0.5
aa(lp140
I831
aI10
aS'/mnt/datadrive/CILVR/frames/Lions/jF5eDmDPUDk/frame_00060.jpeg'
p141
aI60
aF27.699999999999999
aF0
aa(lp142
I846
aI10
aS'/mnt/datadrive/CILVR/frames/Lions/jF5eDmDPUDk/frame_00061.jpeg'
p143
aI61
aF28.199999999999999
aF0
aa(lp144
I861
aI10
aS'/mnt/datadrive/CILVR/frames/Lions/jF5eDmDPUDk/frame_00062.jpeg'
p145
aI62
aF28.699999999999999
aF0
aa(lp146
I876
aI10
aS'/mnt/datadrive/CILVR/frames/Lions/jF5eDmDPUDk/frame_00063.jpeg'
p147
aI63
aF29.199999999999999
aF0
aaa(lp148
(lp149
I887
aI11
aS'/mnt/datadrive/CILVR/frames/Lions/jF5eDmDPUDk/frame_00064.jpeg'
p150
aI64
aF29.566666999999999
aF0.44
aa(lp151
I902
aI11
aS'/mnt/datadrive/CILVR/frames/Lions/jF5eDmDPUDk/frame_00065.jpeg'
p152
aI65
aF30.066666999999999
aF0.01
aa(lp153
I917
aI11
aS'/mnt/datadrive/CILVR/frames/Lions/jF5eDmDPUDk/frame_00066.jpeg'
p154
aI66
aF30.566666999999999
aF0
aa(lp155
I932
aI11
aS'/mnt/datadrive/CILVR/frames/Lions/jF5eDmDPUDk/frame_00067.jpeg'
p156
aI67
aF31.066666999999999
aF0
aa(lp157
I947
aI11
aS'/mnt/datadrive/CILVR/frames/Lions/jF5eDmDPUDk/frame_00068.jpeg'
p158
aI68
aF31.566666999999999
aF0
aaa(lp159
(lp160
I948
aI12
aS'/mnt/datadrive/CILVR/frames/Lions/jF5eDmDPUDk/frame_00069.jpeg'
p161
aI69
aF31.600000000000001
aF0.41999999999999998
aa(lp162
I963
aI12
aS'/mnt/datadrive/CILVR/frames/Lions/jF5eDmDPUDk/frame_00070.jpeg'
p163
aI70
aF32.100000000000001
aF0.01
aa(lp164
I978
aI12
aS'/mnt/datadrive/CILVR/frames/Lions/jF5eDmDPUDk/frame_00071.jpeg'
p165
aI71
aF32.600000000000001
aF0
aa(lp166
I993
aI12
aS'/mnt/datadrive/CILVR/frames/Lions/jF5eDmDPUDk/frame_00072.jpeg'
p167
aI72
aF33.100000000000001
aF0
aa(lp168
I1008
aI12
aS'/mnt/datadrive/CILVR/frames/Lions/jF5eDmDPUDk/frame_00073.jpeg'
p169
aI73
aF33.600000000000001
aF0
aaa(lp170
(lp171
I1011
aI13
aS'/mnt/datadrive/CILVR/frames/Lions/jF5eDmDPUDk/frame_00074.jpeg'
p172
aI74
aF33.700000000000003
aF0.35999999999999999
aaa(lp173
(lp174
I1019
aI14
aS'/mnt/datadrive/CILVR/frames/Lions/jF5eDmDPUDk/frame_00075.jpeg'
p175
aI75
aF33.966667000000001
aF0.34999999999999998
aa(lp176
I1034
aI14
aS'/mnt/datadrive/CILVR/frames/Lions/jF5eDmDPUDk/frame_00076.jpeg'
p177
aI76
aF34.466667000000001
aF0
aa(lp178
I1049
aI14
aS'/mnt/datadrive/CILVR/frames/Lions/jF5eDmDPUDk/frame_00077.jpeg'
p179
aI77
aF34.966667000000001
aF0
aa(lp180
I1064
aI14
aS'/mnt/datadrive/CILVR/frames/Lions/jF5eDmDPUDk/frame_00078.jpeg'
p181
aI78
aF35.466667000000001
aF0
aa(lp182
I1079
aI14
aS'/mnt/datadrive/CILVR/frames/Lions/jF5eDmDPUDk/frame_00079.jpeg'
p183
aI79
aF35.966667000000001
aF0.02
aa(lp184
I1094
aI14
aS'/mnt/datadrive/CILVR/frames/Lions/jF5eDmDPUDk/frame_00080.jpeg'
p185
aI80
aF36.466667000000001
aF0
aa(lp186
I1109
aI14
aS'/mnt/datadrive/CILVR/frames/Lions/jF5eDmDPUDk/frame_00081.jpeg'
p187
aI81
aF36.966667000000001
aF0
aa(lp188
I1124
aI14
aS'/mnt/datadrive/CILVR/frames/Lions/jF5eDmDPUDk/frame_00082.jpeg'
p189
aI82
aF37.466667000000001
aF0
aaa(lp190
(lp191
I1134
aI15
aS'/mnt/datadrive/CILVR/frames/Lions/jF5eDmDPUDk/frame_00083.jpeg'
p192
aI83
aF37.799999999999997
aF0.72999999999999998
aa(lp193
I1149
aI15
aS'/mnt/datadrive/CILVR/frames/Lions/jF5eDmDPUDk/frame_00084.jpeg'
p194
aI84
aF38.299999999999997
aF0
aa(lp195
I1164
aI15
aS'/mnt/datadrive/CILVR/frames/Lions/jF5eDmDPUDk/frame_00085.jpeg'
p196
aI85
aF38.799999999999997
aF0
aa(lp197
I1179
aI15
aS'/mnt/datadrive/CILVR/frames/Lions/jF5eDmDPUDk/frame_00086.jpeg'
p198
aI86
aF39.299999999999997
aF0.01
aa(lp199
I1194
aI15
aS'/mnt/datadrive/CILVR/frames/Lions/jF5eDmDPUDk/frame_00087.jpeg'
p200
aI87
aF39.799999999999997
aF0.01
aa(lp201
I1209
aI15
aS'/mnt/datadrive/CILVR/frames/Lions/jF5eDmDPUDk/frame_00088.jpeg'
p202
aI88
aF40.299999999999997
aF0.01
aa(lp203
I1224
aI15
aS'/mnt/datadrive/CILVR/frames/Lions/jF5eDmDPUDk/frame_00089.jpeg'
p204
aI89
aF40.799999999999997
aF0.01
aa(lp205
I1239
aI15
aS'/mnt/datadrive/CILVR/frames/Lions/jF5eDmDPUDk/frame_00090.jpeg'
p206
aI90
aF41.299999999999997
aF0.01
aa(lp207
I1254
aI15
aS'/mnt/datadrive/CILVR/frames/Lions/jF5eDmDPUDk/frame_00091.jpeg'
p208
aI91
aF41.799999999999997
aF0.01
aa(lp209
I1269
aI15
aS'/mnt/datadrive/CILVR/frames/Lions/jF5eDmDPUDk/frame_00092.jpeg'
p210
aI92
aF42.299999999999997
aF0.01
aa(lp211
I1284
aI15
aS'/mnt/datadrive/CILVR/frames/Lions/jF5eDmDPUDk/frame_00093.jpeg'
p212
aI93
aF42.799999999999997
aF0
aaa(lp213
(lp214
I1291
aI16
aS'/mnt/datadrive/CILVR/frames/Lions/jF5eDmDPUDk/frame_00094.jpeg'
p215
aI94
aF43.033332999999999
aF0.51000000000000001
aa(lp216
I1306
aI16
aS'/mnt/datadrive/CILVR/frames/Lions/jF5eDmDPUDk/frame_00095.jpeg'
p217
aI95
aF43.533332999999999
aF0.040000000000000001
aa(lp218
I1321
aI16
aS'/mnt/datadrive/CILVR/frames/Lions/jF5eDmDPUDk/frame_00096.jpeg'
p219
aI96
aF44.033332999999999
aF0.01
aa(lp220
I1336
aI16
aS'/mnt/datadrive/CILVR/frames/Lions/jF5eDmDPUDk/frame_00097.jpeg'
p221
aI97
aF44.533332999999999
aF0
aa(lp222
I1351
aI16
aS'/mnt/datadrive/CILVR/frames/Lions/jF5eDmDPUDk/frame_00098.jpeg'
p223
aI98
aF45.033332999999999
aF0
aaa(lp224
(lp225
I1357
aI17
aS'/mnt/datadrive/CILVR/frames/Lions/jF5eDmDPUDk/frame_00099.jpeg'
p226
aI99
aF45.233333000000002
aF0.44
aa(lp227
I1372
aI17
aS'/mnt/datadrive/CILVR/frames/Lions/jF5eDmDPUDk/frame_00100.jpeg'
p228
aI100
aF45.733333000000002
aF0
aa(lp229
I1387
aI17
aS'/mnt/datadrive/CILVR/frames/Lions/jF5eDmDPUDk/frame_00101.jpeg'
p230
aI101
aF46.233333000000002
aF0
aa(lp231
I1402
aI17
aS'/mnt/datadrive/CILVR/frames/Lions/jF5eDmDPUDk/frame_00102.jpeg'
p232
aI102
aF46.733333000000002
aF0
aa(lp233
I1417
aI17
aS'/mnt/datadrive/CILVR/frames/Lions/jF5eDmDPUDk/frame_00103.jpeg'
p234
aI103
aF47.233333000000002
aF0
aa(lp235
I1432
aI17
aS'/mnt/datadrive/CILVR/frames/Lions/jF5eDmDPUDk/frame_00104.jpeg'
p236
aI104
aF47.733333000000002
aF0
aa(lp237
I1447
aI17
aS'/mnt/datadrive/CILVR/frames/Lions/jF5eDmDPUDk/frame_00105.jpeg'
p238
aI105
aF48.233333000000002
aF0
aa(lp239
I1462
aI17
aS'/mnt/datadrive/CILVR/frames/Lions/jF5eDmDPUDk/frame_00106.jpeg'
p240
aI106
aF48.733333000000002
aF0
aa(lp241
I1477
aI17
aS'/mnt/datadrive/CILVR/frames/Lions/jF5eDmDPUDk/frame_00107.jpeg'
p242
aI107
aF49.233333000000002
aF0
aa(lp243
I1492
aI17
aS'/mnt/datadrive/CILVR/frames/Lions/jF5eDmDPUDk/frame_00108.jpeg'
p244
aI108
aF49.733333000000002
aF0
aaa(lp245
(lp246
I1502
aI18
aS'/mnt/datadrive/CILVR/frames/Lions/jF5eDmDPUDk/frame_00109.jpeg'
p247
aI109
aF50.066667000000002
aF0.54000000000000004
aa(lp248
I1517
aI18
aS'/mnt/datadrive/CILVR/frames/Lions/jF5eDmDPUDk/frame_00110.jpeg'
p249
aI110
aF50.566667000000002
aF0.01
aa(lp250
I1532
aI18
aS'/mnt/datadrive/CILVR/frames/Lions/jF5eDmDPUDk/frame_00111.jpeg'
p251
aI111
aF51.066667000000002
aF0.02
aa(lp252
I1547
aI18
aS'/mnt/datadrive/CILVR/frames/Lions/jF5eDmDPUDk/frame_00112.jpeg'
p253
aI112
aF51.566667000000002
aF0.01
aa(lp254
I1562
aI18
aS'/mnt/datadrive/CILVR/frames/Lions/jF5eDmDPUDk/frame_00113.jpeg'
p255
aI113
aF52.066667000000002
aF0.02
aa(lp256
I1577
aI18
aS'/mnt/datadrive/CILVR/frames/Lions/jF5eDmDPUDk/frame_00114.jpeg'
p257
aI114
aF52.566667000000002
aF0.01
aaa(lp258
(lp259
I1578
aI19
aS'/mnt/datadrive/CILVR/frames/Lions/jF5eDmDPUDk/frame_00115.jpeg'
p260
aI115
aF52.600000000000001
aF0.57999999999999996
aa(lp261
I1593
aI19
aS'/mnt/datadrive/CILVR/frames/Lions/jF5eDmDPUDk/frame_00116.jpeg'
p262
aI116
aF53.100000000000001
aF0.01
aa(lp263
I1608
aI19
aS'/mnt/datadrive/CILVR/frames/Lions/jF5eDmDPUDk/frame_00117.jpeg'
p264
aI117
aF53.600000000000001
aF0.01
aa(lp265
I1623
aI19
aS'/mnt/datadrive/CILVR/frames/Lions/jF5eDmDPUDk/frame_00118.jpeg'
p266
aI118
aF54.100000000000001
aF0.01
aaa(lp267
(lp268
I1634
aI20
aS'/mnt/datadrive/CILVR/frames/Lions/jF5eDmDPUDk/frame_00119.jpeg'
p269
aI119
aF54.466667000000001
aF0.32000000000000001
aa(lp270
I1649
aI20
aS'/mnt/datadrive/CILVR/frames/Lions/jF5eDmDPUDk/frame_00120.jpeg'
p271
aI120
aF54.966667000000001
aF0.01
aa(lp272
I1664
aI20
aS'/mnt/datadrive/CILVR/frames/Lions/jF5eDmDPUDk/frame_00121.jpeg'
p273
aI121
aF55.466667000000001
aF0
aa(lp274
I1679
aI20
aS'/mnt/datadrive/CILVR/frames/Lions/jF5eDmDPUDk/frame_00122.jpeg'
p275
aI122
aF55.966667000000001
aF0
aa(lp276
I1694
aI20
aS'/mnt/datadrive/CILVR/frames/Lions/jF5eDmDPUDk/frame_00123.jpeg'
p277
aI123
aF56.466667000000001
aF0.01
aa(lp278
I1709
aI20
aS'/mnt/datadrive/CILVR/frames/Lions/jF5eDmDPUDk/frame_00124.jpeg'
p279
aI124
aF56.966667000000001
aF0
aa(lp280
I1724
aI20
aS'/mnt/datadrive/CILVR/frames/Lions/jF5eDmDPUDk/frame_00125.jpeg'
p281
aI125
aF57.466667000000001
aF0
aa(lp282
I1739
aI20
aS'/mnt/datadrive/CILVR/frames/Lions/jF5eDmDPUDk/frame_00126.jpeg'
p283
aI126
aF57.966667000000001
aF0.01
aa(lp284
I1754
aI20
aS'/mnt/datadrive/CILVR/frames/Lions/jF5eDmDPUDk/frame_00127.jpeg'
p285
aI127
aF58.466667000000001
aF0
aa(lp286
I1769
aI20
aS'/mnt/datadrive/CILVR/frames/Lions/jF5eDmDPUDk/frame_00128.jpeg'
p287
aI128
aF58.966667000000001
aF0.01
aa(lp288
I1784
aI20
aS'/mnt/datadrive/CILVR/frames/Lions/jF5eDmDPUDk/frame_00129.jpeg'
p289
aI129
aF59.466667000000001
aF0.01
aa(lp290
I1799
aI20
aS'/mnt/datadrive/CILVR/frames/Lions/jF5eDmDPUDk/frame_00130.jpeg'
p291
aI130
aF59.966667000000001
aF0
aa(lp292
I1814
aI20
aS'/mnt/datadrive/CILVR/frames/Lions/jF5eDmDPUDk/frame_00131.jpeg'
p293
aI131
aF60.466667000000001
aF0.01
aa(lp294
I1829
aI20
aS'/mnt/datadrive/CILVR/frames/Lions/jF5eDmDPUDk/frame_00132.jpeg'
p295
aI132
aF60.966667000000001
aF0.02
aa(lp296
I1844
aI20
aS'/mnt/datadrive/CILVR/frames/Lions/jF5eDmDPUDk/frame_00133.jpeg'
p297
aI133
aF61.466667000000001
aF0.02
aa(lp298
I1859
aI20
aS'/mnt/datadrive/CILVR/frames/Lions/jF5eDmDPUDk/frame_00134.jpeg'
p299
aI134
aF61.966667000000001
aF0.02
aa(lp300
I1874
aI20
aS'/mnt/datadrive/CILVR/frames/Lions/jF5eDmDPUDk/frame_00135.jpeg'
p301
aI135
aF62.466667000000001
aF0
aa(lp302
I1889
aI20
aS'/mnt/datadrive/CILVR/frames/Lions/jF5eDmDPUDk/frame_00136.jpeg'
p303
aI136
aF62.966667000000001
aF0
aa(lp304
I1904
aI20
aS'/mnt/datadrive/CILVR/frames/Lions/jF5eDmDPUDk/frame_00137.jpeg'
p305
aI137
aF63.466667000000001
aF0
aa(lp306
I1919
aI20
aS'/mnt/datadrive/CILVR/frames/Lions/jF5eDmDPUDk/frame_00138.jpeg'
p307
aI138
aF63.966667000000001
aF0
aa(lp308
I1934
aI20
aS'/mnt/datadrive/CILVR/frames/Lions/jF5eDmDPUDk/frame_00139.jpeg'
p309
aI139
aF64.466667000000001
aF0
aa(lp310
I1949
aI20
aS'/mnt/datadrive/CILVR/frames/Lions/jF5eDmDPUDk/frame_00140.jpeg'
p311
aI140
aF64.966667000000001
aF0.02
aa(lp312
I1964
aI20
aS'/mnt/datadrive/CILVR/frames/Lions/jF5eDmDPUDk/frame_00141.jpeg'
p313
aI141
aF65.466667000000001
aF0.01
aa(lp314
I1979
aI20
aS'/mnt/datadrive/CILVR/frames/Lions/jF5eDmDPUDk/frame_00142.jpeg'
p315
aI142
aF65.966667000000001
aF0.01
aa(lp316
I1994
aI20
aS'/mnt/datadrive/CILVR/frames/Lions/jF5eDmDPUDk/frame_00143.jpeg'
p317
aI143
aF66.466667000000001
aF0.01
aa(lp318
I2009
aI20
aS'/mnt/datadrive/CILVR/frames/Lions/jF5eDmDPUDk/frame_00144.jpeg'
p319
aI144
aF66.966667000000001
aF0
aaa(lp320
(lp321
I2017
aI21
aS'/mnt/datadrive/CILVR/frames/Lions/jF5eDmDPUDk/frame_00145.jpeg'
p322
aI145
aF67.233333000000002
aF0.31
aa(lp323
I2032
aI21
aS'/mnt/datadrive/CILVR/frames/Lions/jF5eDmDPUDk/frame_00146.jpeg'
p324
aI146
aF67.733333000000002
aF0.029999999999999999
aa(lp325
I2047
aI21
aS'/mnt/datadrive/CILVR/frames/Lions/jF5eDmDPUDk/frame_00147.jpeg'
p326
aI147
aF68.233333000000002
aF0
aa(lp327
I2062
aI21
aS'/mnt/datadrive/CILVR/frames/Lions/jF5eDmDPUDk/frame_00148.jpeg'
p328
aI148
aF68.733333000000002
aF0.01
aa(lp329
I2077
aI21
aS'/mnt/datadrive/CILVR/frames/Lions/jF5eDmDPUDk/frame_00149.jpeg'
p330
aI149
aF69.233333000000002
aF0.01
aa(lp331
I2092
aI21
aS'/mnt/datadrive/CILVR/frames/Lions/jF5eDmDPUDk/frame_00150.jpeg'
p332
aI150
aF69.733333000000002
aF0.070000000000000007
aa(lp333
I2107
aI21
aS'/mnt/datadrive/CILVR/frames/Lions/jF5eDmDPUDk/frame_00151.jpeg'
p334
aI151
aF70.233333000000002
aF0.01
aa(lp335
I2122
aI21
aS'/mnt/datadrive/CILVR/frames/Lions/jF5eDmDPUDk/frame_00152.jpeg'
p336
aI152
aF70.733333000000002
aF0.02
aa(lp337
I2137
aI21
aS'/mnt/datadrive/CILVR/frames/Lions/jF5eDmDPUDk/frame_00153.jpeg'
p338
aI153
aF71.233333000000002
aF0.01
aa(lp339
I2152
aI21
aS'/mnt/datadrive/CILVR/frames/Lions/jF5eDmDPUDk/frame_00154.jpeg'
p340
aI154
aF71.733333000000002
aF0
aa(lp341
I2167
aI21
aS'/mnt/datadrive/CILVR/frames/Lions/jF5eDmDPUDk/frame_00155.jpeg'
p342
aI155
aF72.233333000000002
aF0.02
aa(lp343
I2182
aI21
aS'/mnt/datadrive/CILVR/frames/Lions/jF5eDmDPUDk/frame_00156.jpeg'
p344
aI156
aF72.733333000000002
aF0.01
aa(lp345
I2197
aI21
aS'/mnt/datadrive/CILVR/frames/Lions/jF5eDmDPUDk/frame_00157.jpeg'
p346
aI157
aF73.233333000000002
aF0
aa(lp347
I2212
aI21
aS'/mnt/datadrive/CILVR/frames/Lions/jF5eDmDPUDk/frame_00158.jpeg'
p348
aI158
aF73.733333000000002
aF0
aa(lp349
I2227
aI21
aS'/mnt/datadrive/CILVR/frames/Lions/jF5eDmDPUDk/frame_00159.jpeg'
p350
aI159
aF74.233333000000002
aF0.01
aa(lp351
I2242
aI21
aS'/mnt/datadrive/CILVR/frames/Lions/jF5eDmDPUDk/frame_00160.jpeg'
p352
aI160
aF74.733333000000002
aF0.01
aa(lp353
I2257
aI21
aS'/mnt/datadrive/CILVR/frames/Lions/jF5eDmDPUDk/frame_00161.jpeg'
p354
aI161
aF75.233333000000002
aF0.01
aa(lp355
I2272
aI21
aS'/mnt/datadrive/CILVR/frames/Lions/jF5eDmDPUDk/frame_00162.jpeg'
p356
aI162
aF75.733333000000002
aF0.01
aaa(lp357
(lp358
I2282
aI22
aS'/mnt/datadrive/CILVR/frames/Lions/jF5eDmDPUDk/frame_00163.jpeg'
p359
aI163
aF76.066666999999995
aF0.35999999999999999
aa(lp360
I2297
aI22
aS'/mnt/datadrive/CILVR/frames/Lions/jF5eDmDPUDk/frame_00164.jpeg'
p361
aI164
aF76.566666999999995
aF0.01
aa(lp362
I2312
aI22
aS'/mnt/datadrive/CILVR/frames/Lions/jF5eDmDPUDk/frame_00165.jpeg'
p363
aI165
aF77.066666999999995
aF0
aa(lp364
I2327
aI22
aS'/mnt/datadrive/CILVR/frames/Lions/jF5eDmDPUDk/frame_00166.jpeg'
p365
aI166
aF77.566666999999995
aF0.01
aa(lp366
I2342
aI22
aS'/mnt/datadrive/CILVR/frames/Lions/jF5eDmDPUDk/frame_00167.jpeg'
p367
aI167
aF78.066666999999995
aF0.01
aa(lp368
I2357
aI22
aS'/mnt/datadrive/CILVR/frames/Lions/jF5eDmDPUDk/frame_00168.jpeg'
p369
aI168
aF78.566666999999995
aF0.029999999999999999
aa(lp370
I2372
aI22
aS'/mnt/datadrive/CILVR/frames/Lions/jF5eDmDPUDk/frame_00169.jpeg'
p371
aI169
aF79.066666999999995
aF0
aa(lp372
I2387
aI22
aS'/mnt/datadrive/CILVR/frames/Lions/jF5eDmDPUDk/frame_00170.jpeg'
p373
aI170
aF79.566666999999995
aF0.01
aa(lp374
I2402
aI22
aS'/mnt/datadrive/CILVR/frames/Lions/jF5eDmDPUDk/frame_00171.jpeg'
p375
aI171
aF80.066666999999995
aF0.01
aa(lp376
I2417
aI22
aS'/mnt/datadrive/CILVR/frames/Lions/jF5eDmDPUDk/frame_00172.jpeg'
p377
aI172
aF80.566666999999995
aF0.02
aa(lp378
I2432
aI22
aS'/mnt/datadrive/CILVR/frames/Lions/jF5eDmDPUDk/frame_00173.jpeg'
p379
aI173
aF81.066666999999995
aF0.01
aa(lp380
I2447
aI22
aS'/mnt/datadrive/CILVR/frames/Lions/jF5eDmDPUDk/frame_00174.jpeg'
p381
aI174
aF81.566666999999995
aF0.01
aa(lp382
I2462
aI22
aS'/mnt/datadrive/CILVR/frames/Lions/jF5eDmDPUDk/frame_00175.jpeg'
p383
aI175
aF82.066666999999995
aF0.02
aa(lp384
I2477
aI22
aS'/mnt/datadrive/CILVR/frames/Lions/jF5eDmDPUDk/frame_00176.jpeg'
p385
aI176
aF82.566666999999995
aF0
aa(lp386
I2492
aI22
aS'/mnt/datadrive/CILVR/frames/Lions/jF5eDmDPUDk/frame_00177.jpeg'
p387
aI177
aF83.066666999999995
aF0
aa(lp388
I2507
aI22
aS'/mnt/datadrive/CILVR/frames/Lions/jF5eDmDPUDk/frame_00178.jpeg'
p389
aI178
aF83.566666999999995
aF0.01
aa(lp390
I2522
aI22
aS'/mnt/datadrive/CILVR/frames/Lions/jF5eDmDPUDk/frame_00179.jpeg'
p391
aI179
aF84.066666999999995
aF0.02
aa(lp392
I2537
aI22
aS'/mnt/datadrive/CILVR/frames/Lions/jF5eDmDPUDk/frame_00180.jpeg'
p393
aI180
aF84.566666999999995
aF0.01
aa(lp394
I2552
aI22
aS'/mnt/datadrive/CILVR/frames/Lions/jF5eDmDPUDk/frame_00181.jpeg'
p395
aI181
aF85.066666999999995
aF0.01
aaa(lp396
(lp397
I2561
aI23
aS'/mnt/datadrive/CILVR/frames/Lions/jF5eDmDPUDk/frame_00182.jpeg'
p398
aI182
aF85.366667000000007
aF0.45000000000000001
aa(lp399
I2576
aI23
aS'/mnt/datadrive/CILVR/frames/Lions/jF5eDmDPUDk/frame_00183.jpeg'
p400
aI183
aF85.866667000000007
aF0.01
aa(lp401
I2591
aI23
aS'/mnt/datadrive/CILVR/frames/Lions/jF5eDmDPUDk/frame_00184.jpeg'
p402
aI184
aF86.366667000000007
aF0.050000000000000003
aa(lp403
I2606
aI23
aS'/mnt/datadrive/CILVR/frames/Lions/jF5eDmDPUDk/frame_00185.jpeg'
p404
aI185
aF86.866667000000007
aF0
aa(lp405
I2621
aI23
aS'/mnt/datadrive/CILVR/frames/Lions/jF5eDmDPUDk/frame_00186.jpeg'
p406
aI186
aF87.366667000000007
aF0.029999999999999999
aa(lp407
I2636
aI23
aS'/mnt/datadrive/CILVR/frames/Lions/jF5eDmDPUDk/frame_00187.jpeg'
p408
aI187
aF87.866667000000007
aF0.01
aa(lp409
I2651
aI23
aS'/mnt/datadrive/CILVR/frames/Lions/jF5eDmDPUDk/frame_00188.jpeg'
p410
aI188
aF88.366667000000007
aF0
aa(lp411
I2666
aI23
aS'/mnt/datadrive/CILVR/frames/Lions/jF5eDmDPUDk/frame_00189.jpeg'
p412
aI189
aF88.866667000000007
aF0
aa(lp413
I2681
aI23
aS'/mnt/datadrive/CILVR/frames/Lions/jF5eDmDPUDk/frame_00190.jpeg'
p414
aI190
aF89.366667000000007
aF0.01
aa(lp415
I2696
aI23
aS'/mnt/datadrive/CILVR/frames/Lions/jF5eDmDPUDk/frame_00191.jpeg'
p416
aI191
aF89.866667000000007
aF0
aa(lp417
I2711
aI23
aS'/mnt/datadrive/CILVR/frames/Lions/jF5eDmDPUDk/frame_00192.jpeg'
p418
aI192
aF90.366667000000007
aF0.01
aa(lp419
I2726
aI23
aS'/mnt/datadrive/CILVR/frames/Lions/jF5eDmDPUDk/frame_00193.jpeg'
p420
aI193
aF90.866667000000007
aF0.02
aa(lp421
I2741
aI23
aS'/mnt/datadrive/CILVR/frames/Lions/jF5eDmDPUDk/frame_00194.jpeg'
p422
aI194
aF91.366667000000007
aF0.02
aa(lp423
I2756
aI23
aS'/mnt/datadrive/CILVR/frames/Lions/jF5eDmDPUDk/frame_00195.jpeg'
p424
aI195
aF91.866667000000007
aF0.02
aa(lp425
I2771
aI23
aS'/mnt/datadrive/CILVR/frames/Lions/jF5eDmDPUDk/frame_00196.jpeg'
p426
aI196
aF92.366667000000007
aF0.029999999999999999
aa(lp427
I2786
aI23
aS'/mnt/datadrive/CILVR/frames/Lions/jF5eDmDPUDk/frame_00197.jpeg'
p428
aI197
aF92.866667000000007
aF0.01
aa(lp429
I2801
aI23
aS'/mnt/datadrive/CILVR/frames/Lions/jF5eDmDPUDk/frame_00198.jpeg'
p430
aI198
aF93.366667000000007
aF0.029999999999999999
aa(lp431
I2816
aI23
aS'/mnt/datadrive/CILVR/frames/Lions/jF5eDmDPUDk/frame_00199.jpeg'
p432
aI199
aF93.866667000000007
aF0.01
aa(lp433
I2831
aI23
aS'/mnt/datadrive/CILVR/frames/Lions/jF5eDmDPUDk/frame_00200.jpeg'
p434
aI200
aF94.366667000000007
aF0.01
aa(lp435
I2846
aI23
aS'/mnt/datadrive/CILVR/frames/Lions/jF5eDmDPUDk/frame_00201.jpeg'
p436
aI201
aF94.866667000000007
aF0.02
aa(lp437
I2861
aI23
aS'/mnt/datadrive/CILVR/frames/Lions/jF5eDmDPUDk/frame_00202.jpeg'
p438
aI202
aF95.366667000000007
aF0.01
aaa(lp439
(lp440
I2871
aI24
aS'/mnt/datadrive/CILVR/frames/Lions/jF5eDmDPUDk/frame_00203.jpeg'
p441
aI203
aF95.700000000000003
aF0.78000000000000003
aa(lp442
I2886
aI24
aS'/mnt/datadrive/CILVR/frames/Lions/jF5eDmDPUDk/frame_00204.jpeg'
p443
aI204
aF96.200000000000003
aF0
aa(lp444
I2901
aI24
aS'/mnt/datadrive/CILVR/frames/Lions/jF5eDmDPUDk/frame_00205.jpeg'
p445
aI205
aF96.700000000000003
aF0
aa(lp446
I2916
aI24
aS'/mnt/datadrive/CILVR/frames/Lions/jF5eDmDPUDk/frame_00206.jpeg'
p447
aI206
aF97.200000000000003
aF0
aa(lp448
I2931
aI24
aS'/mnt/datadrive/CILVR/frames/Lions/jF5eDmDPUDk/frame_00207.jpeg'
p449
aI207
aF97.700000000000003
aF0
aa(lp450
I2946
aI24
aS'/mnt/datadrive/CILVR/frames/Lions/jF5eDmDPUDk/frame_00208.jpeg'
p451
aI208
aF98.200000000000003
aF0
aa(lp452
I2961
aI24
aS'/mnt/datadrive/CILVR/frames/Lions/jF5eDmDPUDk/frame_00209.jpeg'
p453
aI209
aF98.700000000000003
aF0
aa(lp454
I2976
aI24
aS'/mnt/datadrive/CILVR/frames/Lions/jF5eDmDPUDk/frame_00210.jpeg'
p455
aI210
aF99.200000000000003
aF0
aa(lp456
I2991
aI24
aS'/mnt/datadrive/CILVR/frames/Lions/jF5eDmDPUDk/frame_00211.jpeg'
p457
aI211
aF99.700000000000003
aF0
aa(lp458
I3006
aI24
aS'/mnt/datadrive/CILVR/frames/Lions/jF5eDmDPUDk/frame_00212.jpeg'
p459
aI212
aF100.2
aF0
aaas.